; Function Attrs: mustprogress nounwind uwtable
define hidden void @_ZN19G1DirtyCardQueueSet17handle_zero_indexER16G1DirtyCardQueue(ptr noundef nonnull align 8 dereferenceable(928) %0, ptr noundef nonnull align 8 dereferenceable(24) %1) local_unnamed_addr #0 align 2 {
  %3 = tail call noundef ptr @_ZN11PtrQueueSet24exchange_buffer_with_newER8PtrQueue(ptr noundef nonnull align 8 dereferenceable(16) %0, ptr noundef nonnull align 8 dereferenceable(16) %1) #15
  %.not = icmp eq ptr %3, null
  br i1 %.not, label %13, label %4

4:                                                ; preds = %2
  %5 = getelementptr inbounds i8, ptr %1, i64 16
  %6 = load ptr, ptr %5, align 8
  %7 = getelementptr inbounds i8, ptr %3, i64 4
  %8 = load i32, ptr %7, align 4
  %9 = zext i32 %8 to i64
  %10 = getelementptr inbounds i8, ptr %6, i64 32
  %11 = load i64, ptr %10, align 8
  %12 = add i64 %11, %9
  store i64 %12, ptr %10, align 8
  tail call void @_ZN19G1DirtyCardQueueSet23handle_completed_bufferEP10BufferNodeP23G1ConcurrentRefineStats(ptr noundef nonnull align 8 dereferenceable(928) %0, ptr noundef nonnull %3, ptr noundef nonnull %6)
  br label %13

13:                                               ; preds = %4, %2
  ret void
}